; Function Attrs: null_pointer_is_valid sspstrong uwtable
define internal noundef ptr @dtlsdecrypt_copy_cb(ptr noundef returned writeonly captures(ret: address, provenance) initializes((0, 40)) %0, ptr noundef readonly captures(none) %1, i64 %2) #0 {
  %4 = load ptr, ptr %1, align 8
  %5 = tail call noalias ptr @g_strdup(ptr noundef %4)
  store ptr %5, ptr %0, align 8
  %6 = getelementptr inbounds nuw i8, ptr %1, i64 8
  %7 = load ptr, ptr %6, align 8
  %8 = tail call noalias ptr @g_strdup(ptr noundef %7)
  %9 = getelementptr inbounds nuw i8, ptr %0, i64 8
  store ptr %8, ptr %9, align 8
  %10 = getelementptr inbounds nuw i8, ptr %1, i64 16
  %11 = load ptr, ptr %10, align 8
  %12 = tail call noalias ptr @g_strdup(ptr noundef %11)
  %13 = getelementptr inbounds nuw i8, ptr %0, i64 16
  store ptr %12, ptr %13, align 8
  %14 = getelementptr inbounds nuw i8, ptr %1, i64 24
  %15 = load ptr, ptr %14, align 8
  %16 = tail call noalias ptr @g_strdup(ptr noundef %15)
  %17 = getelementptr inbounds nuw i8, ptr %0, i64 24
  store ptr %16, ptr %17, align 8
  %18 = getelementptr inbounds nuw i8, ptr %1, i64 32
  %19 = load ptr, ptr %18, align 8
  %20 = tail call noalias ptr @g_strdup(ptr noundef %19)
  %21 = getelementptr inbounds nuw i8, ptr %0, i64 32
  store ptr %20, ptr %21, align 8
  ret ptr %0
}